; Function Attrs: mustprogress nounwind uwtable
define hidden void @_ZNK5ZHeap8print_onEP12outputStream(ptr noundef nonnull align 64 dereferenceable(15937) %0, ptr noundef %1) local_unnamed_addr #1 align 2 {
  %3 = tail call noundef i64 @_ZNK14ZPageAllocator4usedEv(ptr noundef nonnull align 8 dereferenceable(609) %0) #10
  %4 = lshr i64 %3, 20
  %5 = tail call noundef i64 @_ZNK14ZPageAllocator8capacityEv(ptr noundef nonnull align 8 dereferenceable(609) %0) #10
  %6 = lshr i64 %5, 20
  %7 = tail call noundef i64 @_ZNK14ZPageAllocator12max_capacityEv(ptr noundef nonnull align 8 dereferenceable(609) %0) #10
  %8 = lshr i64 %7, 20
  tail call void (ptr, ptr, ...) @_ZN12outputStream8print_crEPKcz(ptr noundef nonnull align 8 dereferenceable(56) %1, ptr noundef nonnull @.str.12, i64 noundef %4, i64 noundef %6, i64 noundef %8) #10
  tail call void @_ZN14MetaspaceUtils8print_onEP12outputStream(ptr noundef nonnull %1) #10
  ret void
}